target datalayout = "e-m:e-p270:32:32-p271:32:32-p272:64:64-i64:64-i128:128-f80:128-n8:16:32:64-S128"
target triple = "x86_64-pc-linux-gnu"

%class.anon = type { ptr }
%"struct.glslang::TArraySizes" = type <{ %"struct.glslang::TSmallArrayVector", i32, i8, i8, [2 x i8] }>
%"struct.glslang::TSmallArrayVector" = type { ptr, ptr }
%"struct.glslang::TArraySize" = type { i32, ptr }
%"class.__gnu_cxx::__normal_iterator.195" = type { ptr }
%"struct.std::_Vector_base.193" = type { %"struct.std::_Vector_base<glslang::TArraySize, glslang::pool_allocator<glslang::TArraySize>>::_Vector_impl" }
%"struct.std::_Vector_base<glslang::TArraySize, glslang::pool_allocator<glslang::TArraySize>>::_Vector_impl" = type { %"class.glslang::pool_allocator.194", %"struct.std::_Vector_base<glslang::TArraySize, glslang::pool_allocator<glslang::TArraySize>>::_Vector_impl_data" }
%"class.glslang::pool_allocator.194" = type { ptr }
%"struct.std::_Vector_base<glslang::TArraySize, glslang::pool_allocator<glslang::TArraySize>>::_Vector_impl_data" = type { ptr, ptr, ptr }

@.str.17 = private unnamed_addr constant [1 x i8] zeroinitializer, align 1
@.str.21 = private unnamed_addr constant [2 x i8] c"[\00", align 1
@.str.22 = private unnamed_addr constant [24 x i8] c"index out of range '%d'\00", align 1
@.str.23 = private unnamed_addr constant [30 x i8] c"array index out of range '%d'\00", align 1
@.str.24 = private unnamed_addr constant [31 x i8] c"vector index out of range '%d'\00", align 1
@.str.25 = private unnamed_addr constant [31 x i8] c"matrix index out of range '%d'\00", align 1

; Function Attrs: mustprogress nounwind uwtable
define linkonce_odr void @_ZN9__gnu_cxx17__normal_iteratorIPN7glslang10TArraySizeESt6vectorIS2_NS1_14pool_allocatorIS2_EEEEC2ERKS3_(ptr noundef nonnull align 8 dereferenceable(8) %0, ptr noundef nonnull align 8 dereferenceable(8) %1) unnamed_addr #0 comdat align 2 {
  %3 = alloca ptr, align 8
  %4 = alloca ptr, align 8
  store ptr %0, ptr %3, align 8
  store ptr %1, ptr %4, align 8
  %5 = load ptr, ptr %3, align 8
  %6 = getelementptr inbounds %"class.__gnu_cxx::__normal_iterator.195", ptr %5, i32 0, i32 0
  %7 = load ptr, ptr %4, align 8
  %8 = load ptr, ptr %7, align 8
  store ptr %8, ptr %6, align 8
  ret void
}

; Function Attrs: mustprogress nounwind uwtable
define linkonce_odr noundef nonnull align 8 dereferenceable(16) ptr @_ZNK9__gnu_cxx17__normal_iteratorIPN7glslang10TArraySizeESt6vectorIS2_NS1_14pool_allocatorIS2_EEEEdeEv(ptr noundef nonnull align 8 dereferenceable(8) %0) #0 comdat align 2 {
  %2 = alloca ptr, align 8
  store ptr %0, ptr %2, align 8
  %3 = load ptr, ptr %2, align 8
  %4 = getelementptr inbounds %"class.__gnu_cxx::__normal_iterator.195", ptr %3, i32 0, i32 0
  %5 = load ptr, ptr %4, align 8
  ret ptr %5
}

; Function Attrs: mustprogress nounwind uwtable
define linkonce_odr ptr @_ZNSt6vectorIN7glslang10TArraySizeENS0_14pool_allocatorIS1_EEE5beginEv(ptr noundef nonnull align 8 dereferenceable(32) %0) #0 comdat align 2 {
  %2 = alloca %"class.__gnu_cxx::__normal_iterator.195", align 8
  %3 = alloca ptr, align 8
  store ptr %0, ptr %3, align 8
  %4 = load ptr, ptr %3, align 8
  %5 = getelementptr inbounds %"struct.std::_Vector_base.193", ptr %4, i32 0, i32 0
  %6 = getelementptr inbounds i8, ptr %5, i64 8
  %7 = getelementptr inbounds %"struct.std::_Vector_base<glslang::TArraySize, glslang::pool_allocator<glslang::TArraySize>>::_Vector_impl_data", ptr %6, i32 0, i32 0
  call void @_ZN9__gnu_cxx17__normal_iteratorIPN7glslang10TArraySizeESt6vectorIS2_NS1_14pool_allocatorIS2_EEEEC2ERKS3_(ptr noundef nonnull align 8 dereferenceable(8) %2, ptr noundef nonnull align 8 dereferenceable(8) %7) #9
  %8 = getelementptr inbounds %"class.__gnu_cxx::__normal_iterator.195", ptr %2, i32 0, i32 0
  %9 = load ptr, ptr %8, align 8
  ret ptr %9
}

; Function Attrs: mustprogress nounwind uwtable
define linkonce_odr noundef nonnull align 8 dereferenceable(16) ptr @_ZNSt6vectorIN7glslang10TArraySizeENS0_14pool_allocatorIS1_EEE5frontEv(ptr noundef nonnull align 8 dereferenceable(32) %0) #0 comdat align 2 {
  %2 = alloca ptr, align 8
  %3 = alloca %"class.__gnu_cxx::__normal_iterator.195", align 8
  store ptr %0, ptr %2, align 8
  %4 = load ptr, ptr %2, align 8
  %5 = call ptr @_ZNSt6vectorIN7glslang10TArraySizeENS0_14pool_allocatorIS1_EEE5beginEv(ptr noundef nonnull align 8 dereferenceable(32) %4) #9
  %6 = getelementptr inbounds %"class.__gnu_cxx::__normal_iterator.195", ptr %3, i32 0, i32 0
  store ptr %5, ptr %6, align 8
  %7 = call noundef nonnull align 8 dereferenceable(16) ptr @_ZNK9__gnu_cxx17__normal_iteratorIPN7glslang10TArraySizeESt6vectorIS2_NS1_14pool_allocatorIS2_EEEEdeEv(ptr noundef nonnull align 8 dereferenceable(8) %3) #9
  ret ptr %7
}

; Function Attrs: mustprogress nounwind uwtable
define linkonce_odr noundef ptr @_ZNK7glslang17TSmallArrayVector9frontNodeEv(ptr noundef nonnull align 8 dereferenceable(16) %0) #0 comdat align 2 {
  %2 = alloca ptr, align 8
  store ptr %0, ptr %2, align 8
  %3 = load ptr, ptr %2, align 8
  %4 = getelementptr inbounds %"struct.glslang::TSmallArrayVector", ptr %3, i32 0, i32 1
  %5 = load ptr, ptr %4, align 8
  %6 = call noundef nonnull align 8 dereferenceable(16) ptr @_ZNSt6vectorIN7glslang10TArraySizeENS0_14pool_allocatorIS1_EEE5frontEv(ptr noundef nonnull align 8 dereferenceable(32) %5) #9
  %7 = getelementptr inbounds %"struct.glslang::TArraySize", ptr %6, i32 0, i32 1
  %8 = load ptr, ptr %7, align 8
  ret ptr %8
}

; Function Attrs: mustprogress nounwind uwtable
define linkonce_odr noundef ptr @_ZNK7glslang11TArraySizes12getOuterNodeEv(ptr noundef nonnull align 8 dereferenceable(22) %0) #0 comdat align 2 {
  %2 = alloca ptr, align 8
  store ptr %0, ptr %2, align 8
  %3 = load ptr, ptr %2, align 8
  %4 = getelementptr inbounds %"struct.glslang::TArraySizes", ptr %3, i32 0, i32 0
  %5 = call noundef ptr @_ZNK7glslang17TSmallArrayVector9frontNodeEv(ptr noundef nonnull align 8 dereferenceable(16) %4)
  ret ptr %5
}

; Function Attrs: mustprogress nounwind uwtable
define internal noundef zeroext i1 @"_ZZN7glslang17TParseContextBase10checkIndexERKNS_10TSourceLocERKNS_5TTypeERiENK3$_0clEv"(ptr noundef nonnull align 8 dereferenceable(8) %0) #0 align 2 {
  %2 = alloca ptr, align 8
  store ptr %0, ptr %2, align 8
  %3 = load ptr, ptr %2, align 8
  %4 = getelementptr inbounds %class.anon, ptr %3, i32 0, i32 0
  %5 = load ptr, ptr %4, align 8
  %6 = load ptr, ptr %5, align 8
  %7 = getelementptr inbounds ptr, ptr %6, i64 58
  %8 = load ptr, ptr %7, align 8
  %9 = call noundef zeroext i1 %8(ptr noundef nonnull align 8 dereferenceable(152) %5)
  br i1 %9, label %10, label %32

10:                                               ; preds = %1
  %11 = getelementptr inbounds %class.anon, ptr %3, i32 0, i32 0
  %12 = load ptr, ptr %11, align 8
  %13 = load ptr, ptr %12, align 8
  %14 = getelementptr inbounds ptr, ptr %13, i64 19
  %15 = load ptr, ptr %14, align 8
  %16 = call noundef ptr %15(ptr noundef nonnull align 8 dereferenceable(152) %12)
  %17 = call noundef ptr @_ZNK7glslang11TArraySizes12getOuterNodeEv(ptr noundef nonnull align 8 dereferenceable(22) %16)
  %18 = icmp ne ptr %17, null
  br i1 %18, label %19, label %32

19:                                               ; preds = %10
  %20 = getelementptr inbounds %class.anon, ptr %3, i32 0, i32 0
  %21 = load ptr, ptr %20, align 8
  %22 = load ptr, ptr %21, align 8
  %23 = getelementptr inbounds ptr, ptr %22, i64 19
  %24 = load ptr, ptr %23, align 8
  %25 = call noundef ptr %24(ptr noundef nonnull align 8 dereferenceable(152) %21)
  %26 = call noundef ptr @_ZNK7glslang11TArraySizes12getOuterNodeEv(ptr noundef nonnull align 8 dereferenceable(22) %25)
  %27 = load ptr, ptr %26, align 8
  %28 = getelementptr inbounds ptr, ptr %27, i64 12
  %29 = load ptr, ptr %28, align 8
  %30 = call noundef ptr %29(ptr noundef nonnull align 8 dereferenceable(32) %26)
  %31 = icmp eq ptr %30, null
  br label %32

32:                                               ; preds = %19, %10, %1
  %33 = phi i1 [ false, %10 ], [ false, %1 ], [ %31, %19 ]
  ret i1 %33
}

; Function Attrs: mustprogress nounwind uwtable
define void @_ZN7glslang17TParseContextBase10checkIndexERKNS_10TSourceLocERKNS_5TTypeERi(ptr noundef nonnull align 8 dereferenceable(1280) %0, ptr noundef nonnull align 8 dereferenceable(24) %1, ptr noundef nonnull align 8 dereferenceable(152) %2, ptr noundef nonnull align 4 dereferenceable(4) %3) #0 align 2 {
  %5 = alloca ptr, align 8
  %6 = alloca ptr, align 8
  %7 = alloca ptr, align 8
  %8 = alloca ptr, align 8
  %9 = alloca %class.anon, align 8
  store ptr %0, ptr %5, align 8
  store ptr %1, ptr %6, align 8
  store ptr %2, ptr %7, align 8
  store ptr %3, ptr %8, align 8
  %10 = load ptr, ptr %5, align 8
  %11 = getelementptr inbounds %class.anon, ptr %9, i32 0, i32 0
  %12 = load ptr, ptr %7, align 8
  store ptr %12, ptr %11, align 8
  %13 = load ptr, ptr %8, align 8
  %14 = load i32, ptr %13, align 4
  %15 = icmp slt i32 %14, 0
  br i1 %15, label %16, label %24

16:                                               ; preds = %4
  %17 = load ptr, ptr %6, align 8
  %18 = load ptr, ptr %8, align 8
  %19 = load i32, ptr %18, align 4
  %20 = load ptr, ptr %10, align 8
  %21 = getelementptr inbounds ptr, ptr %20, i64 43
  %22 = load ptr, ptr %21, align 8
  call void (ptr, ptr, ptr, ptr, ptr, ...) %22(ptr noundef nonnull align 8 dereferenceable(1280) %10, ptr noundef nonnull align 8 dereferenceable(24) %17, ptr noundef @.str.17, ptr noundef @.str.21, ptr noundef @.str.22, i32 noundef %19)
  %23 = load ptr, ptr %8, align 8
  store i32 0, ptr %23, align 4
  br label %125

24:                                               ; preds = %4
  %25 = load ptr, ptr %7, align 8
  %26 = load ptr, ptr %25, align 8
  %27 = getelementptr inbounds ptr, ptr %26, i64 29
  %28 = load ptr, ptr %27, align 8
  %29 = call noundef zeroext i1 %28(ptr noundef nonnull align 8 dereferenceable(152) %25)
  br i1 %29, label %30, label %62

30:                                               ; preds = %24
  %31 = load ptr, ptr %7, align 8
  %32 = load ptr, ptr %31, align 8
  %33 = getelementptr inbounds ptr, ptr %32, i64 30
  %34 = load ptr, ptr %33, align 8
  %35 = call noundef zeroext i1 %34(ptr noundef nonnull align 8 dereferenceable(152) %31)
  br i1 %35, label %36, label %61

36:                                               ; preds = %30
  %37 = call noundef zeroext i1 @"_ZZN7glslang17TParseContextBase10checkIndexERKNS_10TSourceLocERKNS_5TTypeERiENK3$_0clEv"(ptr noundef nonnull align 8 dereferenceable(8) %9)
  br i1 %37, label %61, label %38

38:                                               ; preds = %36
  %39 = load ptr, ptr %8, align 8
  %40 = load i32, ptr %39, align 4
  %41 = load ptr, ptr %7, align 8
  %42 = load ptr, ptr %41, align 8
  %43 = getelementptr inbounds ptr, ptr %42, i64 15
  %44 = load ptr, ptr %43, align 8
  %45 = call noundef i32 %44(ptr noundef nonnull align 8 dereferenceable(152) %41)
  %46 = icmp sge i32 %40, %45
  br i1 %46, label %47, label %61

47:                                               ; preds = %38
  %48 = load ptr, ptr %6, align 8
  %49 = load ptr, ptr %8, align 8
  %50 = load i32, ptr %49, align 4
  %51 = load ptr, ptr %10, align 8
  %52 = getelementptr inbounds ptr, ptr %51, i64 43
  %53 = load ptr, ptr %52, align 8
  call void (ptr, ptr, ptr, ptr, ptr, ...) %53(ptr noundef nonnull align 8 dereferenceable(1280) %10, ptr noundef nonnull align 8 dereferenceable(24) %48, ptr noundef @.str.17, ptr noundef @.str.21, ptr noundef @.str.23, i32 noundef %50)
  %54 = load ptr, ptr %7, align 8
  %55 = load ptr, ptr %54, align 8
  %56 = getelementptr inbounds ptr, ptr %55, i64 15
  %57 = load ptr, ptr %56, align 8
  %58 = call noundef i32 %57(ptr noundef nonnull align 8 dereferenceable(152) %54)
  %59 = sub nsw i32 %58, 1
  %60 = load ptr, ptr %8, align 8
  store i32 %59, ptr %60, align 4
  br label %61

61:                                               ; preds = %47, %38, %36, %30
  br label %124

62:                                               ; preds = %24
  %63 = load ptr, ptr %7, align 8
  %64 = load ptr, ptr %63, align 8
  %65 = getelementptr inbounds ptr, ptr %64, i64 27
  %66 = load ptr, ptr %65, align 8
  %67 = call noundef zeroext i1 %66(ptr noundef nonnull align 8 dereferenceable(152) %63)
  br i1 %67, label %68, label %92

68:                                               ; preds = %62
  %69 = load ptr, ptr %8, align 8
  %70 = load i32, ptr %69, align 4
  %71 = load ptr, ptr %7, align 8
  %72 = load ptr, ptr %71, align 8
  %73 = getelementptr inbounds ptr, ptr %72, i64 12
  %74 = load ptr, ptr %73, align 8
  %75 = call noundef i32 %74(ptr noundef nonnull align 8 dereferenceable(152) %71)
  %76 = icmp sge i32 %70, %75
  br i1 %76, label %77, label %91

77:                                               ; preds = %68
  %78 = load ptr, ptr %6, align 8
  %79 = load ptr, ptr %8, align 8
  %80 = load i32, ptr %79, align 4
  %81 = load ptr, ptr %10, align 8
  %82 = getelementptr inbounds ptr, ptr %81, i64 43
  %83 = load ptr, ptr %82, align 8
  call void (ptr, ptr, ptr, ptr, ptr, ...) %83(ptr noundef nonnull align 8 dereferenceable(1280) %10, ptr noundef nonnull align 8 dereferenceable(24) %78, ptr noundef @.str.17, ptr noundef @.str.21, ptr noundef @.str.24, i32 noundef %80)
  %84 = load ptr, ptr %7, align 8
  %85 = load ptr, ptr %84, align 8
  %86 = getelementptr inbounds ptr, ptr %85, i64 12
  %87 = load ptr, ptr %86, align 8
  %88 = call noundef i32 %87(ptr noundef nonnull align 8 dereferenceable(152) %84)
  %89 = sub nsw i32 %88, 1
  %90 = load ptr, ptr %8, align 8
  store i32 %89, ptr %90, align 4
  br label %91

91:                                               ; preds = %77, %68
  br label %123

92:                                               ; preds = %62
  %93 = load ptr, ptr %7, align 8
  %94 = load ptr, ptr %93, align 8
  %95 = getelementptr inbounds ptr, ptr %94, i64 28
  %96 = load ptr, ptr %95, align 8
  %97 = call noundef zeroext i1 %96(ptr noundef nonnull align 8 dereferenceable(152) %93)
  br i1 %97, label %98, label %122

98:                                               ; preds = %92
  %99 = load ptr, ptr %8, align 8
  %100 = load i32, ptr %99, align 4
  %101 = load ptr, ptr %7, align 8
  %102 = load ptr, ptr %101, align 8
  %103 = getelementptr inbounds ptr, ptr %102, i64 13
  %104 = load ptr, ptr %103, align 8
  %105 = call noundef i32 %104(ptr noundef nonnull align 8 dereferenceable(152) %101)
  %106 = icmp sge i32 %100, %105
  br i1 %106, label %107, label %121

107:                                              ; preds = %98
  %108 = load ptr, ptr %6, align 8
  %109 = load ptr, ptr %8, align 8
  %110 = load i32, ptr %109, align 4
  %111 = load ptr, ptr %10, align 8
  %112 = getelementptr inbounds ptr, ptr %111, i64 43
  %113 = load ptr, ptr %112, align 8
  call void (ptr, ptr, ptr, ptr, ptr, ...) %113(ptr noundef nonnull align 8 dereferenceable(1280) %10, ptr noundef nonnull align 8 dereferenceable(24) %108, ptr noundef @.str.17, ptr noundef @.str.21, ptr noundef @.str.25, i32 noundef %110)
  %114 = load ptr, ptr %7, align 8
  %115 = load ptr, ptr %114, align 8
  %116 = getelementptr inbounds ptr, ptr %115, i64 13
  %117 = load ptr, ptr %116, align 8
  %118 = call noundef i32 %117(ptr noundef nonnull align 8 dereferenceable(152) %114)
  %119 = sub nsw i32 %118, 1
  %120 = load ptr, ptr %8, align 8
  store i32 %119, ptr %120, align 4
  br label %121

121:                                              ; preds = %107, %98
  br label %122

122:                                              ; preds = %121, %92
  br label %123

123:                                              ; preds = %122, %91
  br label %124

124:                                              ; preds = %123, %61
  br label %125

125:                                              ; preds = %124, %16
  ret void
}