; Function Attrs: mustprogress nounwind uwtable
define void @_ZN7glslang17TParseContextBase10checkIndexERKNS_10TSourceLocERKNS_5TTypeERi(ptr noundef nonnull align 8 dereferenceable(1280) %0, ptr noundef nonnull align 8 dereferenceable(24) %1, ptr noundef nonnull align 8 dereferenceable(152) %2, ptr noundef nonnull align 4 captures(none) dereferenceable(4) %3) local_unnamed_addr #0 align 2 {
  %5 = load i32, ptr %3, align 4
  %6 = icmp slt i32 %5, 0
  br i1 %6, label %7, label %11

7:                                                ; preds = %4
  %8 = load ptr, ptr %0, align 8
  %9 = getelementptr inbounds nuw i8, ptr %8, i64 344
  %10 = load ptr, ptr %9, align 8
  tail call void (ptr, ptr, ptr, ptr, ptr, ...) %10(ptr noundef nonnull align 8 dereferenceable(1280) %0, ptr noundef nonnull align 8 dereferenceable(24) %1, ptr noundef nonnull @.str.17, ptr noundef nonnull @.str.21, ptr noundef nonnull @.str.22, i32 noundef %5) #16
  br label %.sink.split

11:                                               ; preds = %4
  %12 = load ptr, ptr %2, align 8
  %13 = getelementptr inbounds nuw i8, ptr %12, i64 232
  %14 = load ptr, ptr %13, align 8
  %15 = tail call noundef zeroext i1 %14(ptr noundef nonnull align 8 dereferenceable(152) %2) #16
  %16 = load ptr, ptr %2, align 8
  br i1 %15, label %17, label %67

17:                                               ; preds = %11
  %18 = getelementptr inbounds nuw i8, ptr %16, i64 240
  %19 = load ptr, ptr %18, align 8
  %20 = tail call noundef zeroext i1 %19(ptr noundef nonnull align 8 dereferenceable(152) %2) #16
  br i1 %20, label %21, label %108

21:                                               ; preds = %17
  %22 = load ptr, ptr %2, align 8
  %23 = getelementptr inbounds nuw i8, ptr %22, i64 464
  %24 = load ptr, ptr %23, align 8
  %25 = tail call noundef zeroext i1 %24(ptr noundef nonnull align 8 dereferenceable(152) %2) #16
  br i1 %25, label %26, label %"_ZZN7glslang17TParseContextBase10checkIndexERKNS_10TSourceLocERKNS_5TTypeERiENK3$_0clEv.exit.thread"

26:                                               ; preds = %21
  %27 = load ptr, ptr %2, align 8
  %28 = getelementptr inbounds nuw i8, ptr %27, i64 152
  %29 = load ptr, ptr %28, align 8
  %30 = tail call noundef ptr %29(ptr noundef nonnull align 8 dereferenceable(152) %2) #16
  %31 = getelementptr inbounds nuw i8, ptr %30, i64 8
  %32 = load ptr, ptr %31, align 8
  %33 = getelementptr inbounds nuw i8, ptr %32, i64 8
  %34 = load ptr, ptr %33, align 8
  %35 = getelementptr inbounds nuw i8, ptr %34, i64 8
  %36 = load ptr, ptr %35, align 8
  %.not.i = icmp eq ptr %36, null
  br i1 %.not.i, label %"_ZZN7glslang17TParseContextBase10checkIndexERKNS_10TSourceLocERKNS_5TTypeERiENK3$_0clEv.exit.thread", label %"_ZZN7glslang17TParseContextBase10checkIndexERKNS_10TSourceLocERKNS_5TTypeERiENK3$_0clEv.exit"

"_ZZN7glslang17TParseContextBase10checkIndexERKNS_10TSourceLocERKNS_5TTypeERiENK3$_0clEv.exit": ; preds = %26
  %37 = load ptr, ptr %2, align 8
  %38 = getelementptr inbounds nuw i8, ptr %37, i64 152
  %39 = load ptr, ptr %38, align 8
  %40 = tail call noundef ptr %39(ptr noundef nonnull align 8 dereferenceable(152) %2) #16
  %41 = getelementptr inbounds nuw i8, ptr %40, i64 8
  %42 = load ptr, ptr %41, align 8
  %43 = getelementptr inbounds nuw i8, ptr %42, i64 8
  %44 = load ptr, ptr %43, align 8
  %45 = getelementptr inbounds nuw i8, ptr %44, i64 8
  %46 = load ptr, ptr %45, align 8
  %47 = load ptr, ptr %46, align 8
  %48 = getelementptr inbounds nuw i8, ptr %47, i64 96
  %49 = load ptr, ptr %48, align 8
  %50 = tail call noundef ptr %49(ptr noundef nonnull align 8 dereferenceable(32) %46) #16
  %51 = icmp eq ptr %50, null
  br i1 %51, label %108, label %"_ZZN7glslang17TParseContextBase10checkIndexERKNS_10TSourceLocERKNS_5TTypeERiENK3$_0clEv.exit.thread"

"_ZZN7glslang17TParseContextBase10checkIndexERKNS_10TSourceLocERKNS_5TTypeERiENK3$_0clEv.exit.thread": ; preds = %21, %26, %"_ZZN7glslang17TParseContextBase10checkIndexERKNS_10TSourceLocERKNS_5TTypeERiENK3$_0clEv.exit"
  %52 = load i32, ptr %3, align 4
  %53 = load ptr, ptr %2, align 8
  %54 = getelementptr inbounds nuw i8, ptr %53, i64 120
  %55 = load ptr, ptr %54, align 8
  %56 = tail call noundef i32 %55(ptr noundef nonnull align 8 dereferenceable(152) %2) #16
  %.not29 = icmp slt i32 %52, %56
  br i1 %.not29, label %108, label %57

57:                                               ; preds = %"_ZZN7glslang17TParseContextBase10checkIndexERKNS_10TSourceLocERKNS_5TTypeERiENK3$_0clEv.exit.thread"
  %58 = load i32, ptr %3, align 4
  %59 = load ptr, ptr %0, align 8
  %60 = getelementptr inbounds nuw i8, ptr %59, i64 344
  %61 = load ptr, ptr %60, align 8
  tail call void (ptr, ptr, ptr, ptr, ptr, ...) %61(ptr noundef nonnull align 8 dereferenceable(1280) %0, ptr noundef nonnull align 8 dereferenceable(24) %1, ptr noundef nonnull @.str.17, ptr noundef nonnull @.str.21, ptr noundef nonnull @.str.23, i32 noundef %58) #16
  %62 = load ptr, ptr %2, align 8
  %63 = getelementptr inbounds nuw i8, ptr %62, i64 120
  %64 = load ptr, ptr %63, align 8
  %65 = tail call noundef i32 %64(ptr noundef nonnull align 8 dereferenceable(152) %2) #16
  %66 = add nsw i32 %65, -1
  br label %.sink.split

67:                                               ; preds = %11
  %68 = getelementptr inbounds nuw i8, ptr %16, i64 216
  %69 = load ptr, ptr %68, align 8
  %70 = tail call noundef zeroext i1 %69(ptr noundef nonnull align 8 dereferenceable(152) %2) #16
  br i1 %70, label %71, label %87

71:                                               ; preds = %67
  %72 = load i32, ptr %3, align 4
  %73 = load ptr, ptr %2, align 8
  %74 = getelementptr inbounds nuw i8, ptr %73, i64 96
  %75 = load ptr, ptr %74, align 8
  %76 = tail call noundef i32 %75(ptr noundef nonnull align 8 dereferenceable(152) %2) #16
  %.not28 = icmp slt i32 %72, %76
  br i1 %.not28, label %108, label %77

77:                                               ; preds = %71
  %78 = load i32, ptr %3, align 4
  %79 = load ptr, ptr %0, align 8
  %80 = getelementptr inbounds nuw i8, ptr %79, i64 344
  %81 = load ptr, ptr %80, align 8
  tail call void (ptr, ptr, ptr, ptr, ptr, ...) %81(ptr noundef nonnull align 8 dereferenceable(1280) %0, ptr noundef nonnull align 8 dereferenceable(24) %1, ptr noundef nonnull @.str.17, ptr noundef nonnull @.str.21, ptr noundef nonnull @.str.24, i32 noundef %78) #16
  %82 = load ptr, ptr %2, align 8
  %83 = getelementptr inbounds nuw i8, ptr %82, i64 96
  %84 = load ptr, ptr %83, align 8
  %85 = tail call noundef i32 %84(ptr noundef nonnull align 8 dereferenceable(152) %2) #16
  %86 = add nsw i32 %85, -1
  br label %.sink.split

87:                                               ; preds = %67
  %88 = load ptr, ptr %2, align 8
  %89 = getelementptr inbounds nuw i8, ptr %88, i64 224
  %90 = load ptr, ptr %89, align 8
  %91 = tail call noundef zeroext i1 %90(ptr noundef nonnull align 8 dereferenceable(152) %2) #16
  br i1 %91, label %92, label %108

92:                                               ; preds = %87
  %93 = load i32, ptr %3, align 4
  %94 = load ptr, ptr %2, align 8
  %95 = getelementptr inbounds nuw i8, ptr %94, i64 104
  %96 = load ptr, ptr %95, align 8
  %97 = tail call noundef i32 %96(ptr noundef nonnull align 8 dereferenceable(152) %2) #16
  %.not = icmp slt i32 %93, %97
  br i1 %.not, label %108, label %98

98:                                               ; preds = %92
  %99 = load i32, ptr %3, align 4
  %100 = load ptr, ptr %0, align 8
  %101 = getelementptr inbounds nuw i8, ptr %100, i64 344
  %102 = load ptr, ptr %101, align 8
  tail call void (ptr, ptr, ptr, ptr, ptr, ...) %102(ptr noundef nonnull align 8 dereferenceable(1280) %0, ptr noundef nonnull align 8 dereferenceable(24) %1, ptr noundef nonnull @.str.17, ptr noundef nonnull @.str.21, ptr noundef nonnull @.str.25, i32 noundef %99) #16
  %103 = load ptr, ptr %2, align 8
  %104 = getelementptr inbounds nuw i8, ptr %103, i64 104
  %105 = load ptr, ptr %104, align 8
  %106 = tail call noundef i32 %105(ptr noundef nonnull align 8 dereferenceable(152) %2) #16
  %107 = add nsw i32 %106, -1
  br label %.sink.split

.sink.split:                                      ; preds = %7, %77, %98, %57
  %.sink = phi i32 [ %66, %57 ], [ %107, %98 ], [ %86, %77 ], [ 0, %7 ]
  store i32 %.sink, ptr %3, align 4
  br label %108

108:                                              ; preds = %.sink.split, %"_ZZN7glslang17TParseContextBase10checkIndexERKNS_10TSourceLocERKNS_5TTypeERiENK3$_0clEv.exit.thread", %"_ZZN7glslang17TParseContextBase10checkIndexERKNS_10TSourceLocERKNS_5TTypeERiENK3$_0clEv.exit", %17, %87, %92, %71
  ret void
}